target datalayout = "e-m:e-p270:32:32-p271:32:32-p272:64:64-i64:64-i128:128-f80:128-n8:16:32:64-S128"
target triple = "x86_64-pc-linux-gnu"

%struct.rb_code_location_struct = type { %struct.rb_code_position_struct, %struct.rb_code_position_struct }
%struct.rb_code_position_struct = type { i32, i32 }
%struct.RNode = type { i64, %struct.rb_code_location_struct, i32 }
%struct.RNode_SPLAT = type { %struct.RNode, ptr, %struct.rb_code_location_struct }
%struct.RNode_LIST = type { %struct.RNode, ptr, %union.anon.15, ptr }
%union.anon.15 = type { i64 }

; Function Attrs: nounwind sspstrong uwtable
define internal ptr @list_concat(ptr noundef %0, ptr noundef %1) #0 {
  %3 = alloca ptr, align 8
  %4 = alloca ptr, align 8
  %5 = alloca ptr, align 8
  store ptr %0, ptr %3, align 8, !tbaa !33
  store ptr %1, ptr %4, align 8, !tbaa !33
  call void @llvm.lifetime.start.p0(i64 8, ptr %5) #25
  %6 = load ptr, ptr %3, align 8, !tbaa !33
  %7 = getelementptr inbounds nuw %struct.RNode_LIST, ptr %6, i32 0, i32 3
  %8 = load ptr, ptr %7, align 8, !tbaa !279
  %9 = icmp ne ptr %8, null
  br i1 %9, label %10, label %16

10:                                               ; preds = %2
  %11 = load ptr, ptr %3, align 8, !tbaa !33
  %12 = getelementptr inbounds nuw %struct.RNode_LIST, ptr %11, i32 0, i32 3
  %13 = load ptr, ptr %12, align 8, !tbaa !279
  %14 = getelementptr inbounds nuw %struct.RNode_LIST, ptr %13, i32 0, i32 2
  %15 = load ptr, ptr %14, align 8, !tbaa !12
  store ptr %15, ptr %5, align 8, !tbaa !33
  br label %18

16:                                               ; preds = %2
  %17 = load ptr, ptr %3, align 8, !tbaa !33
  store ptr %17, ptr %5, align 8, !tbaa !33
  br label %18

18:                                               ; preds = %16, %10
  %19 = load ptr, ptr %4, align 8, !tbaa !33
  %20 = getelementptr inbounds nuw %struct.RNode_LIST, ptr %19, i32 0, i32 2
  %21 = load i64, ptr %20, align 8, !tbaa !12
  %22 = load ptr, ptr %3, align 8, !tbaa !33
  %23 = getelementptr inbounds nuw %struct.RNode_LIST, ptr %22, i32 0, i32 2
  %24 = load i64, ptr %23, align 8, !tbaa !12
  %25 = add nsw i64 %24, %21
  store i64 %25, ptr %23, align 8, !tbaa !12
  %26 = load ptr, ptr %4, align 8, !tbaa !33
  %27 = load ptr, ptr %5, align 8, !tbaa !33
  %28 = getelementptr inbounds nuw %struct.RNode_LIST, ptr %27, i32 0, i32 3
  store ptr %26, ptr %28, align 8, !tbaa !279
  %29 = load ptr, ptr %4, align 8, !tbaa !33
  %30 = getelementptr inbounds nuw %struct.RNode_LIST, ptr %29, i32 0, i32 3
  %31 = load ptr, ptr %30, align 8, !tbaa !279
  %32 = icmp ne ptr %31, null
  br i1 %32, label %33, label %43

33:                                               ; preds = %18
  %34 = load ptr, ptr %4, align 8, !tbaa !33
  %35 = getelementptr inbounds nuw %struct.RNode_LIST, ptr %34, i32 0, i32 3
  %36 = load ptr, ptr %35, align 8, !tbaa !279
  %37 = getelementptr inbounds nuw %struct.RNode_LIST, ptr %36, i32 0, i32 2
  %38 = load ptr, ptr %37, align 8, !tbaa !12
  %39 = load ptr, ptr %3, align 8, !tbaa !33
  %40 = getelementptr inbounds nuw %struct.RNode_LIST, ptr %39, i32 0, i32 3
  %41 = load ptr, ptr %40, align 8, !tbaa !279
  %42 = getelementptr inbounds nuw %struct.RNode_LIST, ptr %41, i32 0, i32 2
  store ptr %38, ptr %42, align 8, !tbaa !12
  br label %49

43:                                               ; preds = %18
  %44 = load ptr, ptr %4, align 8, !tbaa !33
  %45 = load ptr, ptr %3, align 8, !tbaa !33
  %46 = getelementptr inbounds nuw %struct.RNode_LIST, ptr %45, i32 0, i32 3
  %47 = load ptr, ptr %46, align 8, !tbaa !279
  %48 = getelementptr inbounds nuw %struct.RNode_LIST, ptr %47, i32 0, i32 2
  store ptr %44, ptr %48, align 8, !tbaa !12
  br label %49

49:                                               ; preds = %43, %33
  %50 = load ptr, ptr %3, align 8, !tbaa !33
  %51 = getelementptr inbounds nuw %struct.RNode, ptr %50, i32 0, i32 1
  %52 = getelementptr inbounds nuw %struct.rb_code_location_struct, ptr %51, i32 0, i32 1
  %53 = load ptr, ptr %4, align 8, !tbaa !33
  %54 = getelementptr inbounds nuw %struct.RNode, ptr %53, i32 0, i32 1
  %55 = getelementptr inbounds nuw %struct.rb_code_location_struct, ptr %54, i32 0, i32 1
  call void @llvm.memcpy.p0.p0.i64(ptr align 8 %52, ptr align 8 %55, i64 8, i1 false), !tbaa.struct !32
  %56 = load ptr, ptr %3, align 8, !tbaa !33
  call void @llvm.lifetime.end.p0(i64 8, ptr %5) #25
  ret ptr %56
}

; Function Attrs: nounwind sspstrong uwtable
define internal ptr @splat_array(ptr noundef %0) #0 {
  %2 = alloca ptr, align 8
  %3 = alloca ptr, align 8
  store ptr %0, ptr %3, align 8, !tbaa !33
  %4 = load ptr, ptr %3, align 8, !tbaa !33
  %5 = call zeroext i1 @nd_type_p(ptr noundef %4, i32 noundef 78)
  br i1 %5, label %6, label %10

6:                                                ; preds = %1
  %7 = load ptr, ptr %3, align 8, !tbaa !33
  %8 = getelementptr inbounds nuw %struct.RNode_SPLAT, ptr %7, i32 0, i32 1
  %9 = load ptr, ptr %8, align 8, !tbaa !147
  store ptr %9, ptr %3, align 8, !tbaa !33
  br label %10

10:                                               ; preds = %6, %1
  %11 = load ptr, ptr %3, align 8, !tbaa !33
  %12 = call zeroext i1 @nd_type_p(ptr noundef %11, i32 noundef 43)
  br i1 %12, label %13, label %15

13:                                               ; preds = %10
  %14 = load ptr, ptr %3, align 8, !tbaa !33
  store ptr %14, ptr %2, align 8
  br label %16

15:                                               ; preds = %10
  store ptr null, ptr %2, align 8
  br label %16

16:                                               ; preds = %15, %13
  %17 = load ptr, ptr %2, align 8
  ret ptr %17
}

; Function Attrs: inlinehint nounwind sspstrong uwtable
define internal zeroext i1 @nd_type_p(ptr noundef %0, i32 noundef %1) #6 {
  %3 = alloca ptr, align 8
  %4 = alloca i32, align 4
  store ptr %0, ptr %3, align 8, !tbaa !33
  store i32 %1, ptr %4, align 4, !tbaa !14
  %5 = load ptr, ptr %3, align 8, !tbaa !33
  %6 = getelementptr inbounds nuw %struct.RNode, ptr %5, i32 0, i32 0
  %7 = load i64, ptr %6, align 8, !tbaa !175
  %8 = and i64 %7, 32512
  %9 = lshr i64 %8, 8
  %10 = trunc i64 %9 to i32
  %11 = load i32, ptr %4, align 4, !tbaa !14
  %12 = icmp eq i32 %10, %11
  ret i1 %12
}

; Function Attrs: nounwind sspstrong uwtable
define internal ptr @rest_arg_append(ptr noundef %0, ptr noundef %1, ptr noundef %2, ptr noundef %3) #0 {
  %5 = alloca ptr, align 8
  %6 = alloca ptr, align 8
  %7 = alloca ptr, align 8
  %8 = alloca ptr, align 8
  %9 = alloca ptr, align 8
  %10 = alloca ptr, align 8
  %11 = alloca i32, align 4
  store ptr %0, ptr %6, align 8, !tbaa !6
  store ptr %1, ptr %7, align 8, !tbaa !33
  store ptr %2, ptr %8, align 8, !tbaa !33
  store ptr %3, ptr %9, align 8, !tbaa !22
  call void @llvm.lifetime.start.p0(i64 8, ptr %10) #25
  %12 = load ptr, ptr %8, align 8, !tbaa !33
  %13 = call zeroext i1 @nd_type_p(ptr noundef %12, i32 noundef 43)
  br i1 %13, label %14, label %22

14:                                               ; preds = %4
  %15 = load ptr, ptr %7, align 8, !tbaa !33
  %16 = call ptr @splat_array(ptr noundef %15)
  store ptr %16, ptr %10, align 8, !tbaa !33
  %17 = icmp ne ptr %16, null
  br i1 %17, label %18, label %22

18:                                               ; preds = %14
  %19 = load ptr, ptr %10, align 8, !tbaa !33
  %20 = load ptr, ptr %8, align 8, !tbaa !33
  %21 = call ptr @list_concat(ptr noundef %19, ptr noundef %20)
  store ptr %21, ptr %5, align 8
  store i32 1, ptr %11, align 4
  br label %28

22:                                               ; preds = %14, %4
  %23 = load ptr, ptr %6, align 8, !tbaa !6
  %24 = load ptr, ptr %7, align 8, !tbaa !33
  %25 = load ptr, ptr %8, align 8, !tbaa !33
  %26 = load ptr, ptr %9, align 8, !tbaa !22
  %27 = call ptr @arg_concat(ptr noundef %23, ptr noundef %24, ptr noundef %25, ptr noundef %26)
  store ptr %27, ptr %5, align 8
  store i32 1, ptr %11, align 4
  br label %28

28:                                               ; preds = %22, %18
  call void @llvm.lifetime.end.p0(i64 8, ptr %10) #25
  %29 = load ptr, ptr %5, align 8
  ret ptr %29
}