; Function Attrs: nounwind sspstrong uwtable
define internal fastcc noundef ptr @rest_arg_append(ptr noundef captures(none) %0, ptr noundef %1, ptr noundef %2, ptr noundef nonnull readonly captures(none) %3) unnamed_addr #0 {
  %.val = load i64, ptr %2, align 8, !tbaa !61
  %5 = and i64 %.val, 32512
  %6 = icmp eq i64 %5, 11008
  br i1 %6, label %7, label %36

7:                                                ; preds = %4
  %.val.i = load i64, ptr %1, align 8, !tbaa !61
  %8 = and i64 %.val.i, 32512
  %9 = icmp eq i64 %8, 19968
  br i1 %9, label %10, label %splat_array.exit

10:                                               ; preds = %7
  %11 = getelementptr inbounds nuw i8, ptr %1, i64 32
  %12 = load ptr, ptr %11, align 8, !tbaa !113
  %.0.val.pre.i = load i64, ptr %12, align 8, !tbaa !61
  %.pre.i = and i64 %.0.val.pre.i, 32512
  br label %splat_array.exit

splat_array.exit:                                 ; preds = %7, %10
  %.pre-phi.i = phi i64 [ %.pre.i, %10 ], [ %8, %7 ]
  %.0.i = phi ptr [ %12, %10 ], [ %1, %7 ]
  %.not = icmp eq i64 %.pre-phi.i, 11008
  br i1 %.not, label %13, label %36

13:                                               ; preds = %splat_array.exit
  %14 = getelementptr inbounds nuw i8, ptr %.0.i, i64 48
  %15 = load ptr, ptr %14, align 8, !tbaa !172
  %.not.i = icmp eq ptr %15, null
  br i1 %.not.i, label %19, label %16

16:                                               ; preds = %13
  %17 = getelementptr inbounds nuw i8, ptr %15, i64 40
  %18 = load ptr, ptr %17, align 8, !tbaa !6
  br label %19

19:                                               ; preds = %16, %13
  %.0.i10 = phi ptr [ %18, %16 ], [ %.0.i, %13 ]
  %20 = getelementptr inbounds nuw i8, ptr %2, i64 40
  %21 = load i64, ptr %20, align 8, !tbaa !6
  %22 = getelementptr inbounds nuw i8, ptr %.0.i, i64 40
  %23 = load i64, ptr %22, align 8, !tbaa !6
  %24 = add nsw i64 %23, %21
  store i64 %24, ptr %22, align 8, !tbaa !6
  %25 = getelementptr inbounds nuw i8, ptr %.0.i10, i64 48
  store ptr %2, ptr %25, align 8, !tbaa !172
  %26 = getelementptr inbounds nuw i8, ptr %2, i64 48
  %27 = load ptr, ptr %26, align 8, !tbaa !172
  %.not17.i = icmp eq ptr %27, null
  br i1 %.not17.i, label %list_concat.exit, label %28

28:                                               ; preds = %19
  %29 = getelementptr inbounds nuw i8, ptr %27, i64 40
  %30 = load ptr, ptr %29, align 8, !tbaa !6
  br label %list_concat.exit

list_concat.exit:                                 ; preds = %19, %28
  %.sink.i = phi ptr [ %30, %28 ], [ %2, %19 ]
  %31 = load ptr, ptr %14, align 8, !tbaa !172
  %32 = getelementptr inbounds nuw i8, ptr %31, i64 40
  store ptr %.sink.i, ptr %32, align 8, !tbaa !6
  %33 = getelementptr inbounds nuw i8, ptr %.0.i, i64 16
  %34 = getelementptr inbounds nuw i8, ptr %2, i64 16
  %35 = load i64, ptr %34, align 8
  store i64 %35, ptr %33, align 8
  br label %38

36:                                               ; preds = %splat_array.exit, %4
  %37 = tail call fastcc ptr @arg_concat(ptr noundef %0, ptr noundef %1, ptr noundef nonnull %2, ptr noundef %3)
  br label %38

38:                                               ; preds = %36, %list_concat.exit
  %.0 = phi ptr [ %.0.i, %list_concat.exit ], [ %37, %36 ]
  ret ptr %.0
}